target datalayout = "e-m:e-p270:32:32-p271:32:32-p272:64:64-i64:64-i128:128-f80:128-n8:16:32:64-S128"
target triple = "x86_64-unknown-linux-gnu"

%"struct.facebook::velox::memory::MemoryAllocator::SizeMix" = type { %"struct.std::array", %"struct.std::array", i32, i32 }
%"struct.std::array" = type { [12 x i32] }
%"class.facebook::velox::memory::MemoryAllocator" = type { ptr, %"class.std::enable_shared_from_this", %"class.std::vector", %"struct.std::atomic", %"struct.std::atomic", i32, i8, %"struct.facebook::velox::memory::Stats" }
%"class.std::enable_shared_from_this" = type { %"class.std::weak_ptr" }
%"class.std::weak_ptr" = type { %"class.std::__weak_ptr" }
%"class.std::__weak_ptr" = type { ptr, %"class.std::__weak_count" }
%"class.std::__weak_count" = type { ptr }
%"class.std::vector" = type { %"struct.std::_Vector_base" }
%"struct.std::_Vector_base" = type { %"struct.std::_Vector_base<unsigned long, std::allocator<unsigned long>>::_Vector_impl" }
%"struct.std::_Vector_base<unsigned long, std::allocator<unsigned long>>::_Vector_impl" = type { %"struct.std::_Vector_base<unsigned long, std::allocator<unsigned long>>::_Vector_impl_data" }
%"struct.std::_Vector_base<unsigned long, std::allocator<unsigned long>>::_Vector_impl_data" = type { ptr, ptr, ptr }
%"struct.std::atomic" = type { %"struct.std::__atomic_base" }
%"struct.std::__atomic_base" = type { i64 }
%"struct.facebook::velox::memory::Stats" = type { %"struct.std::array.3", i64 }
%"struct.std::array.3" = type { [20 x %"struct.facebook::velox::memory::SizeClassStats"] }
%"struct.facebook::velox::memory::SizeClassStats" = type { i32, %"struct.std::atomic", %"struct.std::atomic", %"struct.std::atomic.4", %"struct.std::atomic.4" }
%"struct.std::atomic.4" = type { %"struct.std::__atomic_base.5" }
%"struct.std::__atomic_base.5" = type { i64 }
%"class.__gnu_cxx::__normal_iterator" = type { ptr }

; Function Attrs: mustprogress nounwind uwtable
define linkonce_odr void @_ZN9__gnu_cxx17__normal_iteratorIPKmSt6vectorImSaImEEEC2ERKS2_(ptr noundef nonnull align 8 dereferenceable(8) %this, ptr noundef nonnull align 8 dereferenceable(8) %__i) unnamed_addr #5 comdat align 2 {
entry:
  %this.addr = alloca ptr, align 8
  %__i.addr = alloca ptr, align 8
  store ptr %this, ptr %this.addr, align 8
  store ptr %__i, ptr %__i.addr, align 8
  %this1 = load ptr, ptr %this.addr, align 8
  %_M_current = getelementptr inbounds %"class.__gnu_cxx::__normal_iterator", ptr %this1, i32 0, i32 0
  %0 = load ptr, ptr %__i.addr, align 8
  %1 = load ptr, ptr %0, align 8
  store ptr %1, ptr %_M_current, align 8
  ret void
}

; Function Attrs: mustprogress nounwind uwtable
define linkonce_odr noundef nonnull align 4 dereferenceable(4) ptr @_ZNSt14__array_traitsIiLm12EE6_S_refERA12_Kim(ptr noundef nonnull align 4 dereferenceable(48) %__t, i64 noundef %__n) #5 comdat align 2 {
entry:
  %__t.addr = alloca ptr, align 8
  %__n.addr = alloca i64, align 8
  store ptr %__t, ptr %__t.addr, align 8
  store i64 %__n, ptr %__n.addr, align 8
  %0 = load ptr, ptr %__t.addr, align 8
  %1 = load i64, ptr %__n.addr, align 8
  %arrayidx = getelementptr inbounds [12 x i32], ptr %0, i64 0, i64 %1
  ret ptr %arrayidx
}

; Function Attrs: mustprogress nounwind uwtable
define linkonce_odr noundef nonnull align 8 dereferenceable(8) ptr @_ZNK9__gnu_cxx17__normal_iteratorIPKmSt6vectorImSaImEEEdeEv(ptr noundef nonnull align 8 dereferenceable(8) %this) #5 comdat align 2 {
entry:
  %this.addr = alloca ptr, align 8
  store ptr %this, ptr %this.addr, align 8
  %this1 = load ptr, ptr %this.addr, align 8
  %_M_current = getelementptr inbounds %"class.__gnu_cxx::__normal_iterator", ptr %this1, i32 0, i32 0
  %0 = load ptr, ptr %_M_current, align 8
  ret ptr %0
}

; Function Attrs: mustprogress nounwind uwtable
define linkonce_odr ptr @_ZNK9__gnu_cxx17__normal_iteratorIPKmSt6vectorImSaImEEEmiEl(ptr noundef nonnull align 8 dereferenceable(8) %this, i64 noundef %__n) #5 comdat align 2 {
entry:
  %retval = alloca %"class.__gnu_cxx::__normal_iterator", align 8
  %this.addr = alloca ptr, align 8
  %__n.addr = alloca i64, align 8
  %ref.tmp = alloca ptr, align 8
  store ptr %this, ptr %this.addr, align 8
  store i64 %__n, ptr %__n.addr, align 8
  %this1 = load ptr, ptr %this.addr, align 8
  %_M_current = getelementptr inbounds %"class.__gnu_cxx::__normal_iterator", ptr %this1, i32 0, i32 0
  %0 = load ptr, ptr %_M_current, align 8
  %1 = load i64, ptr %__n.addr, align 8
  %idx.neg = sub i64 0, %1
  %add.ptr = getelementptr inbounds i64, ptr %0, i64 %idx.neg
  store ptr %add.ptr, ptr %ref.tmp, align 8
  call void @_ZN9__gnu_cxx17__normal_iteratorIPKmSt6vectorImSaImEEEC2ERKS2_(ptr noundef nonnull align 8 dereferenceable(8) %retval, ptr noundef nonnull align 8 dereferenceable(8) %ref.tmp) #3
  %coerce.dive = getelementptr inbounds %"class.__gnu_cxx::__normal_iterator", ptr %retval, i32 0, i32 0
  %2 = load ptr, ptr %coerce.dive, align 8
  ret ptr %2
}

; Function Attrs: mustprogress nounwind uwtable
define linkonce_odr ptr @_ZNKSt6vectorImSaImEE3endEv(ptr noundef nonnull align 8 dereferenceable(24) %this) #5 comdat align 2 {
entry:
  %retval = alloca %"class.__gnu_cxx::__normal_iterator", align 8
  %this.addr = alloca ptr, align 8
  store ptr %this, ptr %this.addr, align 8
  %this1 = load ptr, ptr %this.addr, align 8
  %_M_impl = getelementptr inbounds %"struct.std::_Vector_base", ptr %this1, i32 0, i32 0
  %_M_finish = getelementptr inbounds %"struct.std::_Vector_base<unsigned long, std::allocator<unsigned long>>::_Vector_impl_data", ptr %_M_impl, i32 0, i32 1
  call void @_ZN9__gnu_cxx17__normal_iteratorIPKmSt6vectorImSaImEEEC2ERKS2_(ptr noundef nonnull align 8 dereferenceable(8) %retval, ptr noundef nonnull align 8 dereferenceable(8) %_M_finish) #3
  %coerce.dive = getelementptr inbounds %"class.__gnu_cxx::__normal_iterator", ptr %retval, i32 0, i32 0
  %0 = load ptr, ptr %coerce.dive, align 8
  ret ptr %0
}

; Function Attrs: mustprogress nounwind uwtable
define linkonce_odr noundef nonnull align 4 dereferenceable(4) ptr @_ZNSt5arrayIiLm12EEixEm(ptr noundef nonnull align 4 dereferenceable(48) %this, i64 noundef %__n) #5 comdat align 2 {
entry:
  %this.addr = alloca ptr, align 8
  %__n.addr = alloca i64, align 8
  store ptr %this, ptr %this.addr, align 8
  store i64 %__n, ptr %__n.addr, align 8
  %this1 = load ptr, ptr %this.addr, align 8
  %_M_elems = getelementptr inbounds %"struct.std::array", ptr %this1, i32 0, i32 0
  %0 = load i64, ptr %__n.addr, align 8
  %call = call noundef nonnull align 4 dereferenceable(4) ptr @_ZNSt14__array_traitsIiLm12EE6_S_refERA12_Kim(ptr noundef nonnull align 4 dereferenceable(48) %_M_elems, i64 noundef %0) #3
  ret ptr %call
}

; Function Attrs: mustprogress nounwind uwtable
define linkonce_odr noundef nonnull align 4 dereferenceable(4) ptr @_ZSt3maxIiERKT_S2_S2_(ptr noundef nonnull align 4 dereferenceable(4) %__a, ptr noundef nonnull align 4 dereferenceable(4) %__b) #5 comdat {
entry:
  %retval = alloca ptr, align 8
  %__a.addr = alloca ptr, align 8
  %__b.addr = alloca ptr, align 8
  store ptr %__a, ptr %__a.addr, align 8
  store ptr %__b, ptr %__b.addr, align 8
  %0 = load ptr, ptr %__a.addr, align 8
  %1 = load i32, ptr %0, align 4
  %2 = load ptr, ptr %__b.addr, align 8
  %3 = load i32, ptr %2, align 4
  %cmp = icmp slt i32 %1, %3
  br i1 %cmp, label %if.then, label %if.end

if.then:                                          ; preds = %entry
  %4 = load ptr, ptr %__b.addr, align 8
  store ptr %4, ptr %retval, align 8
  br label %return

if.end:                                           ; preds = %entry
  %5 = load ptr, ptr %__a.addr, align 8
  store ptr %5, ptr %retval, align 8
  br label %return

return:                                           ; preds = %if.end, %if.then
  %6 = load ptr, ptr %retval, align 8
  ret ptr %6
}

; Function Attrs: mustprogress nounwind uwtable
define linkonce_odr noundef nonnull align 8 dereferenceable(8) ptr @_ZNKSt6vectorImSaImEEixEm(ptr noundef nonnull align 8 dereferenceable(24) %this, i64 noundef %__n) #5 comdat align 2 {
entry:
  %this.addr = alloca ptr, align 8
  %__n.addr = alloca i64, align 8
  store ptr %this, ptr %this.addr, align 8
  store i64 %__n, ptr %__n.addr, align 8
  %this1 = load ptr, ptr %this.addr, align 8
  %_M_impl = getelementptr inbounds %"struct.std::_Vector_base", ptr %this1, i32 0, i32 0
  %_M_start = getelementptr inbounds %"struct.std::_Vector_base<unsigned long, std::allocator<unsigned long>>::_Vector_impl_data", ptr %_M_impl, i32 0, i32 0
  %0 = load ptr, ptr %_M_start, align 8
  %1 = load i64, ptr %__n.addr, align 8
  %add.ptr = getelementptr inbounds i64, ptr %0, i64 %1
  ret ptr %add.ptr
}

; Function Attrs: mustprogress nounwind uwtable
define linkonce_odr noundef i64 @_ZNKSt6vectorImSaImEE4sizeEv(ptr noundef nonnull align 8 dereferenceable(24) %this) #5 comdat align 2 {
entry:
  %this.addr = alloca ptr, align 8
  store ptr %this, ptr %this.addr, align 8
  %this1 = load ptr, ptr %this.addr, align 8
  %_M_impl = getelementptr inbounds %"struct.std::_Vector_base", ptr %this1, i32 0, i32 0
  %_M_finish = getelementptr inbounds %"struct.std::_Vector_base<unsigned long, std::allocator<unsigned long>>::_Vector_impl_data", ptr %_M_impl, i32 0, i32 1
  %0 = load ptr, ptr %_M_finish, align 8
  %_M_impl2 = getelementptr inbounds %"struct.std::_Vector_base", ptr %this1, i32 0, i32 0
  %_M_start = getelementptr inbounds %"struct.std::_Vector_base<unsigned long, std::allocator<unsigned long>>::_Vector_impl_data", ptr %_M_impl2, i32 0, i32 0
  %1 = load ptr, ptr %_M_start, align 8
  %sub.ptr.lhs.cast = ptrtoint ptr %0 to i64
  %sub.ptr.rhs.cast = ptrtoint ptr %1 to i64
  %sub.ptr.sub = sub i64 %sub.ptr.lhs.cast, %sub.ptr.rhs.cast
  %sub.ptr.div = sdiv exact i64 %sub.ptr.sub, 8
  ret i64 %sub.ptr.div
}

; Function Attrs: mustprogress nounwind uwtable
define linkonce_odr void @_ZN8facebook5velox6memory15MemoryAllocator7SizeMixC2Ev(ptr noundef nonnull align 4 dereferenceable(104) %this) unnamed_addr #5 comdat align 2 {
entry:
  %this.addr = alloca ptr, align 8
  store ptr %this, ptr %this.addr, align 8
  %this1 = load ptr, ptr %this.addr, align 8
  %sizeIndices = getelementptr inbounds %"struct.facebook::velox::memory::MemoryAllocator::SizeMix", ptr %this1, i32 0, i32 0
  %_M_elems = getelementptr inbounds %"struct.std::array", ptr %sizeIndices, i32 0, i32 0
  call void @llvm.memset.p0.i64(ptr align 4 %_M_elems, i8 0, i64 48, i1 false)
  %sizeCounts = getelementptr inbounds %"struct.facebook::velox::memory::MemoryAllocator::SizeMix", ptr %this1, i32 0, i32 1
  %_M_elems2 = getelementptr inbounds %"struct.std::array", ptr %sizeCounts, i32 0, i32 0
  call void @llvm.memset.p0.i64(ptr align 4 %_M_elems2, i8 0, i64 48, i1 false)
  %numSizes = getelementptr inbounds %"struct.facebook::velox::memory::MemoryAllocator::SizeMix", ptr %this1, i32 0, i32 2
  store i32 0, ptr %numSizes, align 4
  %totalPages = getelementptr inbounds %"struct.facebook::velox::memory::MemoryAllocator::SizeMix", ptr %this1, i32 0, i32 3
  store i32 0, ptr %totalPages, align 4
  ret void
}

; Function Attrs: mustprogress nounwind uwtable
define linkonce_odr noundef nonnull align 8 dereferenceable(8) ptr @_ZNKSt6vectorImSaImEE4backEv(ptr noundef nonnull align 8 dereferenceable(24) %this) #5 comdat align 2 {
entry:
  %this.addr = alloca ptr, align 8
  %ref.tmp = alloca %"class.__gnu_cxx::__normal_iterator", align 8
  %ref.tmp2 = alloca %"class.__gnu_cxx::__normal_iterator", align 8
  store ptr %this, ptr %this.addr, align 8
  %this1 = load ptr, ptr %this.addr, align 8
  %call = call ptr @_ZNKSt6vectorImSaImEE3endEv(ptr noundef nonnull align 8 dereferenceable(24) %this1) #3
  %coerce.dive = getelementptr inbounds %"class.__gnu_cxx::__normal_iterator", ptr %ref.tmp2, i32 0, i32 0
  store ptr %call, ptr %coerce.dive, align 8
  %call3 = call ptr @_ZNK9__gnu_cxx17__normal_iteratorIPKmSt6vectorImSaImEEEmiEl(ptr noundef nonnull align 8 dereferenceable(8) %ref.tmp2, i64 noundef 1) #3
  %coerce.dive4 = getelementptr inbounds %"class.__gnu_cxx::__normal_iterator", ptr %ref.tmp, i32 0, i32 0
  store ptr %call3, ptr %coerce.dive4, align 8
  %call5 = call noundef nonnull align 8 dereferenceable(8) ptr @_ZNK9__gnu_cxx17__normal_iteratorIPKmSt6vectorImSaImEEEdeEv(ptr noundef nonnull align 8 dereferenceable(8) %ref.tmp) #3
  ret ptr %call5
}

; Function Attrs: mustprogress uwtable
define void @_ZNK8facebook5velox6memory15MemoryAllocator14allocationSizeEmm(ptr noalias sret(%"struct.facebook::velox::memory::MemoryAllocator::SizeMix") align 4 %agg.result, ptr noundef nonnull align 8 dereferenceable(880) %this, i64 noundef %numPages, i64 noundef %minSizeClass) #4 align 2 {
entry:
  %this.addr = alloca ptr, align 8
  %numPages.addr = alloca i64, align 8
  %minSizeClass.addr = alloca i64, align 8
  %needed = alloca i32, align 4
  %pagesToAlloc = alloca i32, align 4
  %sizeIndex = alloca i32, align 4
  %size = alloca i32, align 4
  %isSmallest = alloca i8, align 1
  %numUnits = alloca i32, align 4
  %ref.tmp = alloca i32, align 4
  %ref.tmp19 = alloca i32, align 4
  store ptr %this, ptr %this.addr, align 8
  store i64 %numPages, ptr %numPages.addr, align 8
  store i64 %minSizeClass, ptr %minSizeClass.addr, align 8
  %this1 = load ptr, ptr %this.addr, align 8
  %0 = load i64, ptr %minSizeClass.addr, align 8
  %sizeClassSizes_ = getelementptr inbounds %"class.facebook::velox::memory::MemoryAllocator", ptr %this1, i32 0, i32 2
  %call = call noundef nonnull align 8 dereferenceable(8) ptr @_ZNKSt6vectorImSaImEE4backEv(ptr noundef nonnull align 8 dereferenceable(24) %sizeClassSizes_) #3
  %1 = load i64, ptr %call, align 8
  %cmp = icmp ule i64 %0, %1
  %lnot = xor i1 %cmp, true
  br i1 %lnot, label %if.then, label %if.end

if.then:                                          ; preds = %entry
  call void @llvm.trap()
  br label %if.end

if.end:                                           ; preds = %if.then, %entry
  call void @_ZN8facebook5velox6memory15MemoryAllocator7SizeMixC2Ev(ptr noundef nonnull align 4 dereferenceable(104) %agg.result) #3
  %2 = load i64, ptr %numPages.addr, align 8
  %conv = trunc i64 %2 to i32
  store i32 %conv, ptr %needed, align 4
  store i32 0, ptr %pagesToAlloc, align 4
  %sizeClassSizes_2 = getelementptr inbounds %"class.facebook::velox::memory::MemoryAllocator", ptr %this1, i32 0, i32 2
  %call3 = call noundef i64 @_ZNKSt6vectorImSaImEE4sizeEv(ptr noundef nonnull align 8 dereferenceable(24) %sizeClassSizes_2) #3
  %sub = sub i64 %call3, 1
  %conv4 = trunc i64 %sub to i32
  store i32 %conv4, ptr %sizeIndex, align 4
  br label %for.cond

for.cond:                                         ; preds = %for.inc, %if.end
  %3 = load i32, ptr %sizeIndex, align 4
  %cmp5 = icmp sge i32 %3, 0
  br i1 %cmp5, label %for.body, label %for.end

for.body:                                         ; preds = %for.cond
  %sizeClassSizes_6 = getelementptr inbounds %"class.facebook::velox::memory::MemoryAllocator", ptr %this1, i32 0, i32 2
  %4 = load i32, ptr %sizeIndex, align 4
  %conv7 = sext i32 %4 to i64
  %call8 = call noundef nonnull align 8 dereferenceable(8) ptr @_ZNKSt6vectorImSaImEEixEm(ptr noundef nonnull align 8 dereferenceable(24) %sizeClassSizes_6, i64 noundef %conv7) #3
  %5 = load i64, ptr %call8, align 8
  %conv9 = trunc i64 %5 to i32
  store i32 %conv9, ptr %size, align 4
  %6 = load i32, ptr %sizeIndex, align 4
  %cmp10 = icmp eq i32 %6, 0
  br i1 %cmp10, label %lor.end, label %lor.rhs

lor.rhs:                                          ; preds = %for.body
  %sizeClassSizes_11 = getelementptr inbounds %"class.facebook::velox::memory::MemoryAllocator", ptr %this1, i32 0, i32 2
  %7 = load i32, ptr %sizeIndex, align 4
  %sub12 = sub nsw i32 %7, 1
  %conv13 = sext i32 %sub12 to i64
  %call14 = call noundef nonnull align 8 dereferenceable(8) ptr @_ZNKSt6vectorImSaImEEixEm(ptr noundef nonnull align 8 dereferenceable(24) %sizeClassSizes_11, i64 noundef %conv13) #3
  %8 = load i64, ptr %call14, align 8
  %9 = load i64, ptr %minSizeClass.addr, align 8
  %cmp15 = icmp ult i64 %8, %9
  br label %lor.end

lor.end:                                          ; preds = %lor.rhs, %for.body
  %10 = phi i1 [ true, %for.body ], [ %cmp15, %lor.rhs ]
  %frombool = zext i1 %10 to i8
  store i8 %frombool, ptr %isSmallest, align 1
  %11 = load i32, ptr %size, align 4
  %12 = load i32, ptr %needed, align 4
  %13 = load i32, ptr %needed, align 4
  %div = sdiv i32 %13, 8
  %add = add nsw i32 %12, %div
  %cmp16 = icmp sgt i32 %11, %add
  br i1 %cmp16, label %land.lhs.true, label %if.end18

land.lhs.true:                                    ; preds = %lor.end
  %14 = load i8, ptr %isSmallest, align 1
  %tobool = trunc i8 %14 to i1
  br i1 %tobool, label %if.end18, label %if.then17

if.then17:                                        ; preds = %land.lhs.true
  br label %for.inc

if.end18:                                         ; preds = %land.lhs.true, %lor.end
  store i32 1, ptr %ref.tmp, align 4
  %15 = load i32, ptr %needed, align 4
  %16 = load i32, ptr %size, align 4
  %div20 = sdiv i32 %15, %16
  store i32 %div20, ptr %ref.tmp19, align 4
  %call21 = call noundef nonnull align 4 dereferenceable(4) ptr @_ZSt3maxIiERKT_S2_S2_(ptr noundef nonnull align 4 dereferenceable(4) %ref.tmp, ptr noundef nonnull align 4 dereferenceable(4) %ref.tmp19)
  %17 = load i32, ptr %call21, align 4
  store i32 %17, ptr %numUnits, align 4
  %18 = load i32, ptr %numUnits, align 4
  %19 = load i32, ptr %size, align 4
  %mul = mul nsw i32 %18, %19
  %20 = load i32, ptr %needed, align 4
  %sub22 = sub nsw i32 %20, %mul
  store i32 %sub22, ptr %needed, align 4
  %21 = load i8, ptr %isSmallest, align 1
  %tobool23 = trunc i8 %21 to i1
  br i1 %tobool23, label %land.lhs.true24, label %if.end28

land.lhs.true24:                                  ; preds = %if.end18
  %22 = load i32, ptr %needed, align 4
  %cmp25 = icmp sgt i32 %22, 0
  br i1 %cmp25, label %if.then26, label %if.end28

if.then26:                                        ; preds = %land.lhs.true24
  %23 = load i32, ptr %numUnits, align 4
  %inc = add nsw i32 %23, 1
  store i32 %inc, ptr %numUnits, align 4
  %24 = load i32, ptr %size, align 4
  %25 = load i32, ptr %needed, align 4
  %sub27 = sub nsw i32 %25, %24
  store i32 %sub27, ptr %needed, align 4
  br label %if.end28

if.end28:                                         ; preds = %if.then26, %land.lhs.true24, %if.end18
  %26 = load i32, ptr %numUnits, align 4
  %27 = load i32, ptr %size, align 4
  %mul29 = mul nsw i32 %26, %27
  %cmp30 = icmp ugt i32 %mul29, 65535
  br i1 %cmp30, label %if.then32, label %if.end33

if.then32:                                        ; preds = %if.end28
  call void @llvm.trap()
  br label %if.end33

if.end33:                                         ; preds = %if.then32, %if.end28
  %28 = load i32, ptr %numUnits, align 4
  %sizeCounts = getelementptr inbounds %"struct.facebook::velox::memory::MemoryAllocator::SizeMix", ptr %agg.result, i32 0, i32 1
  %numSizes = getelementptr inbounds %"struct.facebook::velox::memory::MemoryAllocator::SizeMix", ptr %agg.result, i32 0, i32 2
  %29 = load i32, ptr %numSizes, align 4
  %conv34 = sext i32 %29 to i64
  %call35 = call noundef nonnull align 4 dereferenceable(4) ptr @_ZNSt5arrayIiLm12EEixEm(ptr noundef nonnull align 4 dereferenceable(48) %sizeCounts, i64 noundef %conv34) #3
  store i32 %28, ptr %call35, align 4
  %30 = load i32, ptr %numUnits, align 4
  %31 = load i32, ptr %size, align 4
  %mul36 = mul nsw i32 %30, %31
  %32 = load i32, ptr %pagesToAlloc, align 4
  %add37 = add nsw i32 %32, %mul36
  store i32 %add37, ptr %pagesToAlloc, align 4
  %33 = load i32, ptr %sizeIndex, align 4
  %sizeIndices = getelementptr inbounds %"struct.facebook::velox::memory::MemoryAllocator::SizeMix", ptr %agg.result, i32 0, i32 0
  %numSizes38 = getelementptr inbounds %"struct.facebook::velox::memory::MemoryAllocator::SizeMix", ptr %agg.result, i32 0, i32 2
  %34 = load i32, ptr %numSizes38, align 4
  %inc39 = add nsw i32 %34, 1
  store i32 %inc39, ptr %numSizes38, align 4
  %conv40 = sext i32 %34 to i64
  %call41 = call noundef nonnull align 4 dereferenceable(4) ptr @_ZNSt5arrayIiLm12EEixEm(ptr noundef nonnull align 4 dereferenceable(48) %sizeIndices, i64 noundef %conv40) #3
  store i32 %33, ptr %call41, align 4
  %35 = load i32, ptr %needed, align 4
  %cmp42 = icmp sle i32 %35, 0
  br i1 %cmp42, label %if.then43, label %if.end44

if.then43:                                        ; preds = %if.end33
  br label %for.end

if.end44:                                         ; preds = %if.end33
  br label %for.inc

for.inc:                                          ; preds = %if.end44, %if.then17
  %36 = load i32, ptr %sizeIndex, align 4
  %dec = add nsw i32 %36, -1
  store i32 %dec, ptr %sizeIndex, align 4
  br label %for.cond, !llvm.loop !8

for.end:                                          ; preds = %if.then43, %for.cond
  %37 = load i32, ptr %pagesToAlloc, align 4
  %totalPages = getelementptr inbounds %"struct.facebook::velox::memory::MemoryAllocator::SizeMix", ptr %agg.result, i32 0, i32 3
  store i32 %37, ptr %totalPages, align 4
  ret void
}