; Function Attrs: mustprogress nounwind memory(read, argmem: readwrite, inaccessiblemem: write) uwtable
define void @_ZNK8facebook5velox6memory15MemoryAllocator14allocationSizeEmm(ptr noalias nocapture sret(%"struct.facebook::velox::memory::MemoryAllocator::SizeMix") align 4 %agg.result, ptr nocapture noundef nonnull readonly align 8 dereferenceable(880) %this, i64 noundef %numPages, i64 noundef %minSizeClass) local_unnamed_addr #5 align 2 {
entry:
  %_M_finish.i.i = getelementptr inbounds i8, ptr %this, i64 32
  %0 = load ptr, ptr %_M_finish.i.i, align 8
  %add.ptr.i.i = getelementptr inbounds i8, ptr %0, i64 -8
  %1 = load i64, ptr %add.ptr.i.i, align 8
  %cmp.not = icmp ult i64 %1, %minSizeClass
  br i1 %cmp.not, label %if.then, label %if.end

if.then:                                          ; preds = %entry
  tail call void @llvm.trap()
  unreachable

if.end:                                           ; preds = %entry
  %sizeClassSizes_ = getelementptr inbounds i8, ptr %this, i64 24
  tail call void @llvm.memset.p0.i64(ptr noundef nonnull align 4 dereferenceable(104) %agg.result, i8 0, i64 104, i1 false)
  %2 = load ptr, ptr %sizeClassSizes_, align 8
  %sub.ptr.lhs.cast.i = ptrtoint ptr %0 to i64
  %sub.ptr.rhs.cast.i = ptrtoint ptr %2 to i64
  %sub.ptr.sub.i = sub i64 %sub.ptr.lhs.cast.i, %sub.ptr.rhs.cast.i
  %sub.ptr.div.i = lshr exact i64 %sub.ptr.sub.i, 3
  %3 = trunc i64 %sub.ptr.div.i to i32
  %sizeIndex.033 = add i32 %3, -1
  %cmp534 = icmp sgt i32 %sizeIndex.033, -1
  br i1 %cmp534, label %for.body.lr.ph, label %for.end

for.body.lr.ph:                                   ; preds = %if.end
  %conv = trunc i64 %numPages to i32
  %sizeCounts = getelementptr inbounds i8, ptr %agg.result, i64 48
  %numSizes = getelementptr inbounds i8, ptr %agg.result, i64 96
  %4 = zext nneg i32 %sizeIndex.033 to i64
  %5 = and i64 %sub.ptr.div.i, 4294967295
  br label %for.body

for.body:                                         ; preds = %for.body.lr.ph, %for.inc
  %indvars.iv40 = phi i64 [ %5, %for.body.lr.ph ], [ %indvars.iv.next41, %for.inc ]
  %indvars.iv = phi i64 [ %4, %for.body.lr.ph ], [ %indvars.iv.next, %for.inc ]
  %needed.037 = phi i32 [ %conv, %for.body.lr.ph ], [ %needed.2, %for.inc ]
  %pagesToAlloc.036 = phi i32 [ 0, %for.body.lr.ph ], [ %pagesToAlloc.1, %for.inc ]
  %add.ptr.i = getelementptr inbounds i64, ptr %2, i64 %indvars.iv
  %6 = load i64, ptr %add.ptr.i, align 8
  %conv9 = trunc i64 %6 to i32
  %cmp10 = icmp eq i64 %indvars.iv, 0
  br i1 %cmp10, label %if.end18, label %lor.end

lor.end:                                          ; preds = %for.body
  %sub12 = add i64 %indvars.iv40, 4294967294
  %conv13 = and i64 %sub12, 4294967295
  %add.ptr.i24 = getelementptr inbounds i64, ptr %2, i64 %conv13
  %7 = load i64, ptr %add.ptr.i24, align 8
  %cmp15 = icmp ult i64 %7, %minSizeClass
  %div = sdiv i32 %needed.037, 8
  %add = add nsw i32 %div, %needed.037
  %cmp16 = icmp sge i32 %add, %conv9
  %brmerge = select i1 %cmp16, i1 true, i1 %cmp15
  br i1 %brmerge, label %if.end18, label %for.inc

if.end18:                                         ; preds = %for.body, %lor.end
  %8 = phi i1 [ %cmp15, %lor.end ], [ true, %for.body ]
  %div20 = sdiv i32 %needed.037, %conv9
  %.sroa.speculated = tail call i32 @llvm.smax.i32(i32 %div20, i32 1)
  %mul = mul nsw i32 %.sroa.speculated, %conv9
  %sub22 = sub nsw i32 %needed.037, %mul
  %cmp25 = icmp sgt i32 %sub22, 0
  %or.cond = select i1 %8, i1 %cmp25, i1 false
  %inc = zext i1 %or.cond to i32
  %numUnits.0 = add nuw nsw i32 %.sroa.speculated, %inc
  %mul29 = mul nsw i32 %numUnits.0, %conv9
  %cmp30 = icmp ugt i32 %mul29, 65535
  br i1 %cmp30, label %if.then32, label %if.end33

if.then32:                                        ; preds = %if.end18
  tail call void @llvm.trap()
  unreachable

if.end33:                                         ; preds = %if.end18
  %sub27 = select i1 %or.cond, i32 %conv9, i32 0
  %needed.1 = sub nsw i32 %sub22, %sub27
  %9 = load i32, ptr %numSizes, align 4
  %conv34 = sext i32 %9 to i64
  %arrayidx.i.i = getelementptr inbounds [12 x i32], ptr %sizeCounts, i64 0, i64 %conv34
  store i32 %numUnits.0, ptr %arrayidx.i.i, align 4
  %add37 = add nsw i32 %mul29, %pagesToAlloc.036
  %10 = load i32, ptr %numSizes, align 4
  %inc39 = add nsw i32 %10, 1
  store i32 %inc39, ptr %numSizes, align 4
  %conv40 = sext i32 %10 to i64
  %arrayidx.i.i25 = getelementptr inbounds [12 x i32], ptr %agg.result, i64 0, i64 %conv40
  %11 = trunc i64 %indvars.iv to i32
  store i32 %11, ptr %arrayidx.i.i25, align 4
  %cmp42 = icmp slt i32 %needed.1, 1
  br i1 %cmp42, label %for.end, label %for.inc

for.inc:                                          ; preds = %lor.end, %if.end33
  %pagesToAlloc.1 = phi i32 [ %add37, %if.end33 ], [ %pagesToAlloc.036, %lor.end ]
  %needed.2 = phi i32 [ %needed.1, %if.end33 ], [ %needed.037, %lor.end ]
  %indvars.iv.next = add nsw i64 %indvars.iv, -1
  %cmp5 = icmp sgt i64 %indvars.iv, 0
  %indvars.iv.next41 = add nsw i64 %indvars.iv40, -1
  br i1 %cmp5, label %for.body, label %for.end, !llvm.loop !8

for.end:                                          ; preds = %for.inc, %if.end33, %if.end
  %pagesToAlloc.2 = phi i32 [ 0, %if.end ], [ %add37, %if.end33 ], [ %pagesToAlloc.1, %for.inc ]
  %totalPages = getelementptr inbounds i8, ptr %agg.result, i64 100
  store i32 %pagesToAlloc.2, ptr %totalPages, align 4
  ret void
}